target datalayout = "e-m:e-p270:32:32-p271:32:32-p272:64:64-i64:64-i128:128-f80:128-n8:16:32:64-S128"
target triple = "x86_64-pc-linux-gnu"

; Function Attrs: alwaysinline nounwind willreturn memory(none) uwtable
define internal zeroext i8 @av_clip_uint8_c(i32 noundef %0) #5 {
  %2 = alloca i8, align 1
  %3 = alloca i32, align 4
  store i32 %0, ptr %3, align 4, !tbaa !38
  %4 = load i32, ptr %3, align 4, !tbaa !38
  %5 = and i32 %4, -256
  %6 = icmp ne i32 %5, 0
  br i1 %6, label %7, label %12

7:                                                ; preds = %1
  %8 = load i32, ptr %3, align 4, !tbaa !38
  %9 = xor i32 %8, -1
  %10 = ashr i32 %9, 31
  %11 = trunc i32 %10 to i8
  store i8 %11, ptr %2, align 1
  br label %15

12:                                               ; preds = %1
  %13 = load i32, ptr %3, align 4, !tbaa !38
  %14 = trunc i32 %13 to i8
  store i8 %14, ptr %2, align 1
  br label %15

15:                                               ; preds = %12, %7
  %16 = load i8, ptr %2, align 1
  ret i8 %16
}

; Function Attrs: nounwind uwtable
define internal void @vc1_inv_trans_4x4_c(ptr noundef %0, i64 noundef %1, ptr noundef %2) #1 {
  %4 = alloca ptr, align 8
  %5 = alloca i64, align 8
  %6 = alloca ptr, align 8
  %7 = alloca i32, align 4
  %8 = alloca i32, align 4
  %9 = alloca i32, align 4
  %10 = alloca i32, align 4
  %11 = alloca i32, align 4
  %12 = alloca ptr, align 8
  %13 = alloca ptr, align 8
  store ptr %0, ptr %4, align 8, !tbaa !45
  store i64 %1, ptr %5, align 8, !tbaa !47
  store ptr %2, ptr %6, align 8, !tbaa !36
  call void @llvm.lifetime.start.p0(i64 4, ptr %7) #7
  call void @llvm.lifetime.start.p0(i64 4, ptr %8) #7
  call void @llvm.lifetime.start.p0(i64 4, ptr %9) #7
  call void @llvm.lifetime.start.p0(i64 4, ptr %10) #7
  call void @llvm.lifetime.start.p0(i64 4, ptr %11) #7
  call void @llvm.lifetime.start.p0(i64 8, ptr %12) #7
  call void @llvm.lifetime.start.p0(i64 8, ptr %13) #7
  %14 = load ptr, ptr %6, align 8, !tbaa !36
  store ptr %14, ptr %12, align 8, !tbaa !36
  %15 = load ptr, ptr %6, align 8, !tbaa !36
  store ptr %15, ptr %13, align 8, !tbaa !36
  store i32 0, ptr %7, align 4, !tbaa !38
  br label %16

16:                                               ; preds = %96, %3
  %17 = load i32, ptr %7, align 4, !tbaa !38
  %18 = icmp slt i32 %17, 4
  br i1 %18, label %19, label %99

19:                                               ; preds = %16
  %20 = load ptr, ptr %12, align 8, !tbaa !36
  %21 = getelementptr inbounds i16, ptr %20, i64 0
  %22 = load i16, ptr %21, align 2, !tbaa !40
  %23 = sext i16 %22 to i32
  %24 = load ptr, ptr %12, align 8, !tbaa !36
  %25 = getelementptr inbounds i16, ptr %24, i64 2
  %26 = load i16, ptr %25, align 2, !tbaa !40
  %27 = sext i16 %26 to i32
  %28 = add nsw i32 %23, %27
  %29 = mul nsw i32 17, %28
  %30 = add nsw i32 %29, 4
  store i32 %30, ptr %8, align 4, !tbaa !38
  %31 = load ptr, ptr %12, align 8, !tbaa !36
  %32 = getelementptr inbounds i16, ptr %31, i64 0
  %33 = load i16, ptr %32, align 2, !tbaa !40
  %34 = sext i16 %33 to i32
  %35 = load ptr, ptr %12, align 8, !tbaa !36
  %36 = getelementptr inbounds i16, ptr %35, i64 2
  %37 = load i16, ptr %36, align 2, !tbaa !40
  %38 = sext i16 %37 to i32
  %39 = sub nsw i32 %34, %38
  %40 = mul nsw i32 17, %39
  %41 = add nsw i32 %40, 4
  store i32 %41, ptr %9, align 4, !tbaa !38
  %42 = load ptr, ptr %12, align 8, !tbaa !36
  %43 = getelementptr inbounds i16, ptr %42, i64 1
  %44 = load i16, ptr %43, align 2, !tbaa !40
  %45 = sext i16 %44 to i32
  %46 = mul nsw i32 22, %45
  %47 = load ptr, ptr %12, align 8, !tbaa !36
  %48 = getelementptr inbounds i16, ptr %47, i64 3
  %49 = load i16, ptr %48, align 2, !tbaa !40
  %50 = sext i16 %49 to i32
  %51 = mul nsw i32 10, %50
  %52 = add nsw i32 %46, %51
  store i32 %52, ptr %10, align 4, !tbaa !38
  %53 = load ptr, ptr %12, align 8, !tbaa !36
  %54 = getelementptr inbounds i16, ptr %53, i64 3
  %55 = load i16, ptr %54, align 2, !tbaa !40
  %56 = sext i16 %55 to i32
  %57 = mul nsw i32 22, %56
  %58 = load ptr, ptr %12, align 8, !tbaa !36
  %59 = getelementptr inbounds i16, ptr %58, i64 1
  %60 = load i16, ptr %59, align 2, !tbaa !40
  %61 = sext i16 %60 to i32
  %62 = mul nsw i32 10, %61
  %63 = sub nsw i32 %57, %62
  store i32 %63, ptr %11, align 4, !tbaa !38
  %64 = load i32, ptr %8, align 4, !tbaa !38
  %65 = load i32, ptr %10, align 4, !tbaa !38
  %66 = add nsw i32 %64, %65
  %67 = ashr i32 %66, 3
  %68 = trunc i32 %67 to i16
  %69 = load ptr, ptr %13, align 8, !tbaa !36
  %70 = getelementptr inbounds i16, ptr %69, i64 0
  store i16 %68, ptr %70, align 2, !tbaa !40
  %71 = load i32, ptr %9, align 4, !tbaa !38
  %72 = load i32, ptr %11, align 4, !tbaa !38
  %73 = sub nsw i32 %71, %72
  %74 = ashr i32 %73, 3
  %75 = trunc i32 %74 to i16
  %76 = load ptr, ptr %13, align 8, !tbaa !36
  %77 = getelementptr inbounds i16, ptr %76, i64 1
  store i16 %75, ptr %77, align 2, !tbaa !40
  %78 = load i32, ptr %9, align 4, !tbaa !38
  %79 = load i32, ptr %11, align 4, !tbaa !38
  %80 = add nsw i32 %78, %79
  %81 = ashr i32 %80, 3
  %82 = trunc i32 %81 to i16
  %83 = load ptr, ptr %13, align 8, !tbaa !36
  %84 = getelementptr inbounds i16, ptr %83, i64 2
  store i16 %82, ptr %84, align 2, !tbaa !40
  %85 = load i32, ptr %8, align 4, !tbaa !38
  %86 = load i32, ptr %10, align 4, !tbaa !38
  %87 = sub nsw i32 %85, %86
  %88 = ashr i32 %87, 3
  %89 = trunc i32 %88 to i16
  %90 = load ptr, ptr %13, align 8, !tbaa !36
  %91 = getelementptr inbounds i16, ptr %90, i64 3
  store i16 %89, ptr %91, align 2, !tbaa !40
  %92 = load ptr, ptr %12, align 8, !tbaa !36
  %93 = getelementptr inbounds i16, ptr %92, i64 8
  store ptr %93, ptr %12, align 8, !tbaa !36
  %94 = load ptr, ptr %13, align 8, !tbaa !36
  %95 = getelementptr inbounds i16, ptr %94, i64 8
  store ptr %95, ptr %13, align 8, !tbaa !36
  br label %96

96:                                               ; preds = %19
  %97 = load i32, ptr %7, align 4, !tbaa !38
  %98 = add nsw i32 %97, 1
  store i32 %98, ptr %7, align 4, !tbaa !38
  br label %16, !llvm.loop !54

99:                                               ; preds = %16
  %100 = load ptr, ptr %6, align 8, !tbaa !36
  store ptr %100, ptr %12, align 8, !tbaa !36
  store i32 0, ptr %7, align 4, !tbaa !38
  br label %101

101:                                              ; preds = %217, %99
  %102 = load i32, ptr %7, align 4, !tbaa !38
  %103 = icmp slt i32 %102, 4
  br i1 %103, label %104, label %220

104:                                              ; preds = %101
  %105 = load ptr, ptr %12, align 8, !tbaa !36
  %106 = getelementptr inbounds i16, ptr %105, i64 0
  %107 = load i16, ptr %106, align 2, !tbaa !40
  %108 = sext i16 %107 to i32
  %109 = load ptr, ptr %12, align 8, !tbaa !36
  %110 = getelementptr inbounds i16, ptr %109, i64 16
  %111 = load i16, ptr %110, align 2, !tbaa !40
  %112 = sext i16 %111 to i32
  %113 = add nsw i32 %108, %112
  %114 = mul nsw i32 17, %113
  %115 = add nsw i32 %114, 64
  store i32 %115, ptr %8, align 4, !tbaa !38
  %116 = load ptr, ptr %12, align 8, !tbaa !36
  %117 = getelementptr inbounds i16, ptr %116, i64 0
  %118 = load i16, ptr %117, align 2, !tbaa !40
  %119 = sext i16 %118 to i32
  %120 = load ptr, ptr %12, align 8, !tbaa !36
  %121 = getelementptr inbounds i16, ptr %120, i64 16
  %122 = load i16, ptr %121, align 2, !tbaa !40
  %123 = sext i16 %122 to i32
  %124 = sub nsw i32 %119, %123
  %125 = mul nsw i32 17, %124
  %126 = add nsw i32 %125, 64
  store i32 %126, ptr %9, align 4, !tbaa !38
  %127 = load ptr, ptr %12, align 8, !tbaa !36
  %128 = getelementptr inbounds i16, ptr %127, i64 8
  %129 = load i16, ptr %128, align 2, !tbaa !40
  %130 = sext i16 %129 to i32
  %131 = mul nsw i32 22, %130
  %132 = load ptr, ptr %12, align 8, !tbaa !36
  %133 = getelementptr inbounds i16, ptr %132, i64 24
  %134 = load i16, ptr %133, align 2, !tbaa !40
  %135 = sext i16 %134 to i32
  %136 = mul nsw i32 10, %135
  %137 = add nsw i32 %131, %136
  store i32 %137, ptr %10, align 4, !tbaa !38
  %138 = load ptr, ptr %12, align 8, !tbaa !36
  %139 = getelementptr inbounds i16, ptr %138, i64 24
  %140 = load i16, ptr %139, align 2, !tbaa !40
  %141 = sext i16 %140 to i32
  %142 = mul nsw i32 22, %141
  %143 = load ptr, ptr %12, align 8, !tbaa !36
  %144 = getelementptr inbounds i16, ptr %143, i64 8
  %145 = load i16, ptr %144, align 2, !tbaa !40
  %146 = sext i16 %145 to i32
  %147 = mul nsw i32 10, %146
  %148 = sub nsw i32 %142, %147
  store i32 %148, ptr %11, align 4, !tbaa !38
  %149 = load ptr, ptr %4, align 8, !tbaa !45
  %150 = load i64, ptr %5, align 8, !tbaa !47
  %151 = mul nsw i64 0, %150
  %152 = getelementptr inbounds i8, ptr %149, i64 %151
  %153 = load i8, ptr %152, align 1, !tbaa !50
  %154 = zext i8 %153 to i32
  %155 = load i32, ptr %8, align 4, !tbaa !38
  %156 = load i32, ptr %10, align 4, !tbaa !38
  %157 = add nsw i32 %155, %156
  %158 = ashr i32 %157, 7
  %159 = add nsw i32 %154, %158
  %160 = call zeroext i8 @av_clip_uint8_c(i32 noundef %159) #8
  %161 = load ptr, ptr %4, align 8, !tbaa !45
  %162 = load i64, ptr %5, align 8, !tbaa !47
  %163 = mul nsw i64 0, %162
  %164 = getelementptr inbounds i8, ptr %161, i64 %163
  store i8 %160, ptr %164, align 1, !tbaa !50
  %165 = load ptr, ptr %4, align 8, !tbaa !45
  %166 = load i64, ptr %5, align 8, !tbaa !47
  %167 = mul nsw i64 1, %166
  %168 = getelementptr inbounds i8, ptr %165, i64 %167
  %169 = load i8, ptr %168, align 1, !tbaa !50
  %170 = zext i8 %169 to i32
  %171 = load i32, ptr %9, align 4, !tbaa !38
  %172 = load i32, ptr %11, align 4, !tbaa !38
  %173 = sub nsw i32 %171, %172
  %174 = ashr i32 %173, 7
  %175 = add nsw i32 %170, %174
  %176 = call zeroext i8 @av_clip_uint8_c(i32 noundef %175) #8
  %177 = load ptr, ptr %4, align 8, !tbaa !45
  %178 = load i64, ptr %5, align 8, !tbaa !47
  %179 = mul nsw i64 1, %178
  %180 = getelementptr inbounds i8, ptr %177, i64 %179
  store i8 %176, ptr %180, align 1, !tbaa !50
  %181 = load ptr, ptr %4, align 8, !tbaa !45
  %182 = load i64, ptr %5, align 8, !tbaa !47
  %183 = mul nsw i64 2, %182
  %184 = getelementptr inbounds i8, ptr %181, i64 %183
  %185 = load i8, ptr %184, align 1, !tbaa !50
  %186 = zext i8 %185 to i32
  %187 = load i32, ptr %9, align 4, !tbaa !38
  %188 = load i32, ptr %11, align 4, !tbaa !38
  %189 = add nsw i32 %187, %188
  %190 = ashr i32 %189, 7
  %191 = add nsw i32 %186, %190
  %192 = call zeroext i8 @av_clip_uint8_c(i32 noundef %191) #8
  %193 = load ptr, ptr %4, align 8, !tbaa !45
  %194 = load i64, ptr %5, align 8, !tbaa !47
  %195 = mul nsw i64 2, %194
  %196 = getelementptr inbounds i8, ptr %193, i64 %195
  store i8 %192, ptr %196, align 1, !tbaa !50
  %197 = load ptr, ptr %4, align 8, !tbaa !45
  %198 = load i64, ptr %5, align 8, !tbaa !47
  %199 = mul nsw i64 3, %198
  %200 = getelementptr inbounds i8, ptr %197, i64 %199
  %201 = load i8, ptr %200, align 1, !tbaa !50
  %202 = zext i8 %201 to i32
  %203 = load i32, ptr %8, align 4, !tbaa !38
  %204 = load i32, ptr %10, align 4, !tbaa !38
  %205 = sub nsw i32 %203, %204
  %206 = ashr i32 %205, 7
  %207 = add nsw i32 %202, %206
  %208 = call zeroext i8 @av_clip_uint8_c(i32 noundef %207) #8
  %209 = load ptr, ptr %4, align 8, !tbaa !45
  %210 = load i64, ptr %5, align 8, !tbaa !47
  %211 = mul nsw i64 3, %210
  %212 = getelementptr inbounds i8, ptr %209, i64 %211
  store i8 %208, ptr %212, align 1, !tbaa !50
  %213 = load ptr, ptr %12, align 8, !tbaa !36
  %214 = getelementptr inbounds nuw i16, ptr %213, i32 1
  store ptr %214, ptr %12, align 8, !tbaa !36
  %215 = load ptr, ptr %4, align 8, !tbaa !45
  %216 = getelementptr inbounds nuw i8, ptr %215, i32 1
  store ptr %216, ptr %4, align 8, !tbaa !45
  br label %217

217:                                              ; preds = %104
  %218 = load i32, ptr %7, align 4, !tbaa !38
  %219 = add nsw i32 %218, 1
  store i32 %219, ptr %7, align 4, !tbaa !38
  br label %101, !llvm.loop !55

220:                                              ; preds = %101
  call void @llvm.lifetime.end.p0(i64 8, ptr %13) #7
  call void @llvm.lifetime.end.p0(i64 8, ptr %12) #7
  call void @llvm.lifetime.end.p0(i64 4, ptr %11) #7
  call void @llvm.lifetime.end.p0(i64 4, ptr %10) #7
  call void @llvm.lifetime.end.p0(i64 4, ptr %9) #7
  call void @llvm.lifetime.end.p0(i64 4, ptr %8) #7
  call void @llvm.lifetime.end.p0(i64 4, ptr %7) #7
  ret void
}