; Function Attrs: nofree norecurse nosync nounwind memory(argmem: readwrite) uwtable
define internal void @vc1_inv_trans_4x4_c(ptr noundef captures(none) %0, i64 noundef %1, ptr noundef captures(none) %2) #1 {
  br label %6

.preheader:                                       ; preds = %6
  %4 = shl nsw i64 %1, 1
  %5 = mul nsw i64 %1, 3
  br label %43

6:                                                ; preds = %3, %6
  %.078 = phi ptr [ %2, %3 ], [ %41, %6 ]
  %.06376 = phi i32 [ 0, %3 ], [ %42, %6 ]
  %7 = load i16, ptr %.078, align 2, !tbaa !34
  %8 = sext i16 %7 to i32
  %9 = getelementptr inbounds nuw i8, ptr %.078, i64 4
  %10 = load i16, ptr %9, align 2, !tbaa !34
  %11 = sext i16 %10 to i32
  %12 = add nsw i32 %11, %8
  %13 = mul nsw i32 %12, 17
  %14 = add nsw i32 %13, 4
  %15 = sub nsw i32 %8, %11
  %16 = mul nsw i32 %15, 17
  %17 = add nsw i32 %16, 4
  %18 = getelementptr inbounds nuw i8, ptr %.078, i64 2
  %19 = load i16, ptr %18, align 2, !tbaa !34
  %20 = sext i16 %19 to i32
  %21 = mul nsw i32 %20, 22
  %22 = getelementptr inbounds nuw i8, ptr %.078, i64 6
  %23 = load i16, ptr %22, align 2, !tbaa !34
  %24 = sext i16 %23 to i32
  %25 = mul nsw i32 %24, 10
  %26 = add nsw i32 %25, %21
  %27 = mul nsw i32 %24, 22
  %.neg66 = mul nsw i32 %20, -10
  %28 = add nsw i32 %27, %.neg66
  %29 = add nsw i32 %26, %14
  %30 = lshr i32 %29, 3
  %31 = trunc i32 %30 to i16
  store i16 %31, ptr %.078, align 2, !tbaa !34
  %32 = sub nsw i32 %17, %28
  %33 = lshr i32 %32, 3
  %34 = trunc i32 %33 to i16
  store i16 %34, ptr %18, align 2, !tbaa !34
  %35 = add nsw i32 %28, %17
  %36 = lshr i32 %35, 3
  %37 = trunc i32 %36 to i16
  store i16 %37, ptr %9, align 2, !tbaa !34
  %38 = sub nsw i32 %14, %26
  %39 = lshr i32 %38, 3
  %40 = trunc i32 %39 to i16
  store i16 %40, ptr %22, align 2, !tbaa !34
  %41 = getelementptr i8, ptr %.078, i64 16
  %42 = add nuw nsw i32 %.06376, 1
  %exitcond.not = icmp eq i32 %42, 4
  br i1 %exitcond.not, label %.preheader, label %6, !llvm.loop !44

43:                                               ; preds = %.preheader, %43
  %.181 = phi ptr [ %2, %.preheader ], [ %97, %43 ]
  %.16480 = phi i32 [ 0, %.preheader ], [ %99, %43 ]
  %.06579 = phi ptr [ %0, %.preheader ], [ %98, %43 ]
  %44 = load i16, ptr %.181, align 2, !tbaa !34
  %45 = sext i16 %44 to i32
  %46 = getelementptr inbounds nuw i8, ptr %.181, i64 32
  %47 = load i16, ptr %46, align 2, !tbaa !34
  %48 = sext i16 %47 to i32
  %49 = add nsw i32 %48, %45
  %50 = mul nsw i32 %49, 17
  %51 = add nsw i32 %50, 64
  %52 = sub nsw i32 %45, %48
  %53 = mul nsw i32 %52, 17
  %54 = add nsw i32 %53, 64
  %55 = getelementptr inbounds nuw i8, ptr %.181, i64 16
  %56 = load i16, ptr %55, align 2, !tbaa !34
  %57 = sext i16 %56 to i32
  %58 = mul nsw i32 %57, 22
  %59 = getelementptr inbounds nuw i8, ptr %.181, i64 48
  %60 = load i16, ptr %59, align 2, !tbaa !34
  %61 = sext i16 %60 to i32
  %62 = mul nsw i32 %61, 10
  %63 = add nsw i32 %62, %58
  %64 = mul nsw i32 %61, 22
  %.neg = mul nsw i32 %57, -10
  %65 = add nsw i32 %64, %.neg
  %66 = load i8, ptr %.06579, align 1, !tbaa !40
  %67 = zext i8 %66 to i32
  %68 = add nsw i32 %63, %51
  %69 = ashr i32 %68, 7
  %70 = add nsw i32 %69, %67
  %.not.i = icmp ult i32 %70, 256
  %isnotneg.i = icmp sgt i32 %70, -1
  %71 = sext i1 %isnotneg.i to i8
  %72 = trunc nuw i32 %70 to i8
  %.0.i = select i1 %.not.i, i8 %72, i8 %71
  store i8 %.0.i, ptr %.06579, align 1, !tbaa !40
  %73 = getelementptr inbounds i8, ptr %.06579, i64 %1
  %74 = load i8, ptr %73, align 1, !tbaa !40
  %75 = zext i8 %74 to i32
  %76 = sub nsw i32 %54, %65
  %77 = ashr i32 %76, 7
  %78 = add nsw i32 %77, %75
  %.not.i67 = icmp ult i32 %78, 256
  %isnotneg.i68 = icmp sgt i32 %78, -1
  %79 = sext i1 %isnotneg.i68 to i8
  %80 = trunc nuw i32 %78 to i8
  %.0.i69 = select i1 %.not.i67, i8 %80, i8 %79
  store i8 %.0.i69, ptr %73, align 1, !tbaa !40
  %81 = getelementptr inbounds i8, ptr %.06579, i64 %4
  %82 = load i8, ptr %81, align 1, !tbaa !40
  %83 = zext i8 %82 to i32
  %84 = add nsw i32 %65, %54
  %85 = ashr i32 %84, 7
  %86 = add nsw i32 %85, %83
  %.not.i70 = icmp ult i32 %86, 256
  %isnotneg.i71 = icmp sgt i32 %86, -1
  %87 = sext i1 %isnotneg.i71 to i8
  %88 = trunc nuw i32 %86 to i8
  %.0.i72 = select i1 %.not.i70, i8 %88, i8 %87
  store i8 %.0.i72, ptr %81, align 1, !tbaa !40
  %89 = getelementptr inbounds i8, ptr %.06579, i64 %5
  %90 = load i8, ptr %89, align 1, !tbaa !40
  %91 = zext i8 %90 to i32
  %92 = sub nsw i32 %51, %63
  %93 = ashr i32 %92, 7
  %94 = add nsw i32 %93, %91
  %.not.i73 = icmp ult i32 %94, 256
  %isnotneg.i74 = icmp sgt i32 %94, -1
  %95 = sext i1 %isnotneg.i74 to i8
  %96 = trunc nuw i32 %94 to i8
  %.0.i75 = select i1 %.not.i73, i8 %96, i8 %95
  store i8 %.0.i75, ptr %89, align 1, !tbaa !40
  %97 = getelementptr inbounds nuw i8, ptr %.181, i64 2
  %98 = getelementptr inbounds nuw i8, ptr %.06579, i64 1
  %99 = add nuw nsw i32 %.16480, 1
  %exitcond82.not = icmp eq i32 %99, 4
  br i1 %exitcond82.not, label %100, label %43, !llvm.loop !45

100:                                              ; preds = %43
  ret void
}